; Function Attrs: mustprogress uwtable
define internal void @_ZNK12_GLOBAL__N_116itanium_demangle25TemplateTemplateParamDecl9printLeftERNS0_12OutputBufferE(ptr noundef nonnull readonly align 8 captures(none) dereferenceable(48) %0, ptr noundef nonnull align 8 dereferenceable(44) %1) unnamed_addr #2 align 2 personality ptr @__gxx_personality_v0 {
  %3 = getelementptr inbounds nuw i8, ptr %1, i64 40
  %4 = load i32, ptr %3, align 8, !tbaa !172
  store i32 0, ptr %3, align 8, !tbaa !172
  %5 = getelementptr inbounds nuw i8, ptr %1, i64 16
  %6 = load i64, ptr %5, align 8, !tbaa !224
  %7 = add i64 %6, 9
  %8 = getelementptr inbounds nuw i8, ptr %1, i64 24
  %9 = load i64, ptr %8, align 8, !tbaa !225
  %10 = icmp ugt i64 %7, %9
  br i1 %10, label %11, label %._ZN12_GLOBAL__N_116itanium_demangle12OutputBuffer4growEm.exit_crit_edge.i

._ZN12_GLOBAL__N_116itanium_demangle12OutputBuffer4growEm.exit_crit_edge.i: ; preds = %2
  %.phi.trans.insert.i = getelementptr inbounds nuw i8, ptr %1, i64 8
  %.pre.i = load ptr, ptr %.phi.trans.insert.i, align 8, !tbaa !222
  br label %_ZN12_GLOBAL__N_116itanium_demangle12OutputBuffer4growEm.exit.i

11:                                               ; preds = %2
  %12 = add i64 %6, 1001
  %13 = shl i64 %9, 1
  %spec.select.i.i = tail call i64 @llvm.umax.i64(i64 %13, i64 %12)
  store i64 %spec.select.i.i, ptr %8, align 8, !tbaa !225
  %14 = getelementptr inbounds nuw i8, ptr %1, i64 8
  %15 = load ptr, ptr %14, align 8, !tbaa !222
  %16 = tail call ptr @realloc(ptr noundef %15, i64 noundef %spec.select.i.i) #34
  store ptr %16, ptr %14, align 8, !tbaa !222
  %17 = icmp eq ptr %16, null
  br i1 %17, label %18, label %._ZN12_GLOBAL__N_116itanium_demangle12OutputBuffer4growEm.exit_crit_edge4.i

._ZN12_GLOBAL__N_116itanium_demangle12OutputBuffer4growEm.exit_crit_edge4.i: ; preds = %11
  %.pre5.i = load i64, ptr %5, align 8, !tbaa !224
  br label %_ZN12_GLOBAL__N_116itanium_demangle12OutputBuffer4growEm.exit.i

18:                                               ; preds = %11
  tail call void @abort() #33
  unreachable

_ZN12_GLOBAL__N_116itanium_demangle12OutputBuffer4growEm.exit.i: ; preds = %._ZN12_GLOBAL__N_116itanium_demangle12OutputBuffer4growEm.exit_crit_edge4.i, %._ZN12_GLOBAL__N_116itanium_demangle12OutputBuffer4growEm.exit_crit_edge.i
  %19 = phi i64 [ %6, %._ZN12_GLOBAL__N_116itanium_demangle12OutputBuffer4growEm.exit_crit_edge.i ], [ %.pre5.i, %._ZN12_GLOBAL__N_116itanium_demangle12OutputBuffer4growEm.exit_crit_edge4.i ]
  %20 = phi ptr [ %.pre.i, %._ZN12_GLOBAL__N_116itanium_demangle12OutputBuffer4growEm.exit_crit_edge.i ], [ %16, %._ZN12_GLOBAL__N_116itanium_demangle12OutputBuffer4growEm.exit_crit_edge4.i ]
  %21 = getelementptr inbounds nuw i8, ptr %20, i64 %19
  tail call void @llvm.memcpy.p0.p0.i64(ptr noundef nonnull align 1 dereferenceable(9) %21, ptr noundef nonnull readonly align 1 dereferenceable(9) @.str.295, i64 9, i1 false)
  %22 = load i64, ptr %5, align 8, !tbaa !224
  %23 = add i64 %22, 9
  store i64 %23, ptr %5, align 8, !tbaa !224
  %24 = getelementptr inbounds nuw i8, ptr %0, i64 24
  invoke fastcc void @_ZNK12_GLOBAL__N_116itanium_demangle9NodeArray14printWithCommaERNS0_12OutputBufferE(ptr noundef nonnull align 8 dereferenceable(16) %24, ptr noundef nonnull align 8 dereferenceable(44) %1)
          to label %25 unwind label %43

25:                                               ; preds = %_ZN12_GLOBAL__N_116itanium_demangle12OutputBuffer4growEm.exit.i
  %26 = load i64, ptr %5, align 8, !tbaa !224
  %27 = add i64 %26, 11
  %28 = load i64, ptr %8, align 8, !tbaa !225
  %29 = icmp ugt i64 %27, %28
  br i1 %29, label %30, label %._ZN12_GLOBAL__N_116itanium_demangle12OutputBuffer4growEm.exit_crit_edge.i10

._ZN12_GLOBAL__N_116itanium_demangle12OutputBuffer4growEm.exit_crit_edge.i10: ; preds = %25
  %.phi.trans.insert.i11 = getelementptr inbounds nuw i8, ptr %1, i64 8
  %.pre.i12 = load ptr, ptr %.phi.trans.insert.i11, align 8, !tbaa !222
  br label %_ZN12_GLOBAL__N_116itanium_demangle12OutputBuffer4growEm.exit.i13

30:                                               ; preds = %25
  %31 = add i64 %26, 1003
  %32 = shl i64 %28, 1
  %spec.select.i.i14 = tail call i64 @llvm.umax.i64(i64 %32, i64 %31)
  store i64 %spec.select.i.i14, ptr %8, align 8, !tbaa !225
  %33 = getelementptr inbounds nuw i8, ptr %1, i64 8
  %34 = load ptr, ptr %33, align 8, !tbaa !222
  %35 = tail call ptr @realloc(ptr noundef %34, i64 noundef %spec.select.i.i14) #34
  store ptr %35, ptr %33, align 8, !tbaa !222
  %36 = icmp eq ptr %35, null
  br i1 %36, label %37, label %._ZN12_GLOBAL__N_116itanium_demangle12OutputBuffer4growEm.exit_crit_edge4.i15

._ZN12_GLOBAL__N_116itanium_demangle12OutputBuffer4growEm.exit_crit_edge4.i15: ; preds = %30
  %.pre5.i16 = load i64, ptr %5, align 8, !tbaa !224
  br label %_ZN12_GLOBAL__N_116itanium_demangle12OutputBuffer4growEm.exit.i13

37:                                               ; preds = %30
  tail call void @abort() #33
  unreachable

_ZN12_GLOBAL__N_116itanium_demangle12OutputBuffer4growEm.exit.i13: ; preds = %._ZN12_GLOBAL__N_116itanium_demangle12OutputBuffer4growEm.exit_crit_edge4.i15, %._ZN12_GLOBAL__N_116itanium_demangle12OutputBuffer4growEm.exit_crit_edge.i10
  %38 = phi i64 [ %26, %._ZN12_GLOBAL__N_116itanium_demangle12OutputBuffer4growEm.exit_crit_edge.i10 ], [ %.pre5.i16, %._ZN12_GLOBAL__N_116itanium_demangle12OutputBuffer4growEm.exit_crit_edge4.i15 ]
  %39 = phi ptr [ %.pre.i12, %._ZN12_GLOBAL__N_116itanium_demangle12OutputBuffer4growEm.exit_crit_edge.i10 ], [ %35, %._ZN12_GLOBAL__N_116itanium_demangle12OutputBuffer4growEm.exit_crit_edge4.i15 ]
  %40 = getelementptr inbounds nuw i8, ptr %39, i64 %38
  tail call void @llvm.memcpy.p0.p0.i64(ptr noundef nonnull align 1 dereferenceable(11) %40, ptr noundef nonnull readonly align 1 dereferenceable(11) @.str.296, i64 11, i1 false)
  %41 = load i64, ptr %5, align 8, !tbaa !224
  %42 = add i64 %41, 11
  store i64 %42, ptr %5, align 8, !tbaa !224
  store i32 %4, ptr %3, align 8, !tbaa !172
  ret void

43:                                               ; preds = %_ZN12_GLOBAL__N_116itanium_demangle12OutputBuffer4growEm.exit.i
  %44 = landingpad { ptr, i32 }
          cleanup
  store i32 %4, ptr %3, align 8, !tbaa !172
  resume { ptr, i32 } %44
}